target datalayout = "e-m:e-p270:32:32-p271:32:32-p272:64:64-i64:64-i128:128-f80:128-n8:16:32:64-S128"
target triple = "x86_64-pc-linux-gnu"

%"class.pxrInternal_v0_24__pxrReserved__::GfVec2d" = type { [2 x double] }
%"class.pxrInternal_v0_24__pxrReserved__::GfLineSeg2d" = type { %"class.pxrInternal_v0_24__pxrReserved__::GfLine2d", double }
%"class.pxrInternal_v0_24__pxrReserved__::GfLine2d" = type { %"class.pxrInternal_v0_24__pxrReserved__::GfVec2d", %"class.pxrInternal_v0_24__pxrReserved__::GfVec2d" }

; Function Attrs: mustprogress nounwind uwtable
define linkonce_odr noundef nonnull align 8 dereferenceable(8) ptr @_ZNK32pxrInternal_v0_24__pxrReserved__7GfVec2dixEm(ptr noundef nonnull align 8 dereferenceable(16) %0, i64 noundef %1) #2 comdat align 2 {
  %3 = alloca ptr, align 8
  %4 = alloca i64, align 8
  store ptr %0, ptr %3, align 8
  store i64 %1, ptr %4, align 8
  %5 = load ptr, ptr %3, align 8
  %6 = getelementptr inbounds nuw %"class.pxrInternal_v0_24__pxrReserved__::GfVec2d", ptr %5, i32 0, i32 0
  %7 = load i64, ptr %4, align 8
  %8 = getelementptr inbounds [2 x double], ptr %6, i64 0, i64 %7
  ret ptr %8
}

; Function Attrs: mustprogress uwtable
define linkonce_odr noundef nonnull align 8 dereferenceable(16) ptr @_ZN32pxrInternal_v0_24__pxrReserved__7GfVec2dpLERKS0_(ptr noundef nonnull align 8 dereferenceable(16) %0, ptr noundef nonnull align 8 dereferenceable(16) %1) #0 comdat align 2 {
  %3 = alloca ptr, align 8
  %4 = alloca ptr, align 8
  store ptr %0, ptr %3, align 8
  store ptr %1, ptr %4, align 8
  %5 = load ptr, ptr %3, align 8
  %6 = load ptr, ptr %4, align 8
  %7 = call noundef nonnull align 8 dereferenceable(8) ptr @_ZNK32pxrInternal_v0_24__pxrReserved__7GfVec2dixEm(ptr noundef nonnull align 8 dereferenceable(16) %6, i64 noundef 0)
  %8 = load double, ptr %7, align 8
  %9 = getelementptr inbounds nuw %"class.pxrInternal_v0_24__pxrReserved__::GfVec2d", ptr %5, i32 0, i32 0
  %10 = getelementptr inbounds [2 x double], ptr %9, i64 0, i64 0
  %11 = load double, ptr %10, align 8
  %12 = fadd double %11, %8
  store double %12, ptr %10, align 8
  %13 = load ptr, ptr %4, align 8
  %14 = call noundef nonnull align 8 dereferenceable(8) ptr @_ZNK32pxrInternal_v0_24__pxrReserved__7GfVec2dixEm(ptr noundef nonnull align 8 dereferenceable(16) %13, i64 noundef 1)
  %15 = load double, ptr %14, align 8
  %16 = getelementptr inbounds nuw %"class.pxrInternal_v0_24__pxrReserved__::GfVec2d", ptr %5, i32 0, i32 0
  %17 = getelementptr inbounds [2 x double], ptr %16, i64 0, i64 1
  %18 = load double, ptr %17, align 8
  %19 = fadd double %18, %15
  store double %19, ptr %17, align 8
  ret ptr %5
}

; Function Attrs: mustprogress nounwind uwtable
define linkonce_odr noundef nonnull align 8 dereferenceable(16) ptr @_ZN32pxrInternal_v0_24__pxrReserved__7GfVec2dmLEd(ptr noundef nonnull align 8 dereferenceable(16) %0, double noundef %1) #2 comdat align 2 {
  %3 = alloca ptr, align 8
  %4 = alloca double, align 8
  store ptr %0, ptr %3, align 8
  store double %1, ptr %4, align 8
  %5 = load ptr, ptr %3, align 8
  %6 = load double, ptr %4, align 8
  %7 = getelementptr inbounds nuw %"class.pxrInternal_v0_24__pxrReserved__::GfVec2d", ptr %5, i32 0, i32 0
  %8 = getelementptr inbounds [2 x double], ptr %7, i64 0, i64 0
  %9 = load double, ptr %8, align 8
  %10 = fmul double %9, %6
  store double %10, ptr %8, align 8
  %11 = load double, ptr %4, align 8
  %12 = getelementptr inbounds nuw %"class.pxrInternal_v0_24__pxrReserved__::GfVec2d", ptr %5, i32 0, i32 0
  %13 = getelementptr inbounds [2 x double], ptr %12, i64 0, i64 1
  %14 = load double, ptr %13, align 8
  %15 = fmul double %14, %11
  store double %15, ptr %13, align 8
  ret ptr %5
}

; Function Attrs: mustprogress uwtable
define linkonce_odr { double, double } @_ZN32pxrInternal_v0_24__pxrReserved__plERKNS_7GfVec2dES2_(ptr noundef nonnull align 8 dereferenceable(16) %0, ptr noundef nonnull align 8 dereferenceable(16) %1) #0 comdat {
  %3 = alloca %"class.pxrInternal_v0_24__pxrReserved__::GfVec2d", align 8
  %4 = alloca ptr, align 8
  %5 = alloca ptr, align 8
  %6 = alloca %"class.pxrInternal_v0_24__pxrReserved__::GfVec2d", align 8
  store ptr %0, ptr %4, align 8
  store ptr %1, ptr %5, align 8
  %7 = load ptr, ptr %5, align 8
  %8 = load ptr, ptr %4, align 8
  call void @llvm.memcpy.p0.p0.i64(ptr align 8 %6, ptr align 8 %8, i64 16, i1 false)
  %9 = call noundef nonnull align 8 dereferenceable(16) ptr @_ZN32pxrInternal_v0_24__pxrReserved__7GfVec2dpLERKS0_(ptr noundef nonnull align 8 dereferenceable(16) %6, ptr noundef nonnull align 8 dereferenceable(16) %7)
  call void @llvm.memcpy.p0.p0.i64(ptr align 8 %3, ptr align 8 %9, i64 16, i1 false)
  %10 = getelementptr inbounds nuw %"class.pxrInternal_v0_24__pxrReserved__::GfVec2d", ptr %3, i32 0, i32 0
  %11 = load { double, double }, ptr %10, align 8
  ret { double, double } %11
}

; Function Attrs: mustprogress uwtable
define linkonce_odr { double, double } @_ZNK32pxrInternal_v0_24__pxrReserved__7GfVec2dmlEd(ptr noundef nonnull align 8 dereferenceable(16) %0, double noundef %1) #0 comdat align 2 {
  %3 = alloca %"class.pxrInternal_v0_24__pxrReserved__::GfVec2d", align 8
  %4 = alloca ptr, align 8
  %5 = alloca double, align 8
  %6 = alloca %"class.pxrInternal_v0_24__pxrReserved__::GfVec2d", align 8
  store ptr %0, ptr %4, align 8
  store double %1, ptr %5, align 8
  %7 = load ptr, ptr %4, align 8
  %8 = load double, ptr %5, align 8
  call void @llvm.memcpy.p0.p0.i64(ptr align 8 %6, ptr align 8 %7, i64 16, i1 false)
  %9 = call noundef nonnull align 8 dereferenceable(16) ptr @_ZN32pxrInternal_v0_24__pxrReserved__7GfVec2dmLEd(ptr noundef nonnull align 8 dereferenceable(16) %6, double noundef %8)
  call void @llvm.memcpy.p0.p0.i64(ptr align 8 %3, ptr align 8 %9, i64 16, i1 false)
  %10 = getelementptr inbounds nuw %"class.pxrInternal_v0_24__pxrReserved__::GfVec2d", ptr %3, i32 0, i32 0
  %11 = load { double, double }, ptr %10, align 8
  ret { double, double } %11
}

; Function Attrs: mustprogress uwtable
define linkonce_odr { double, double } @_ZNK32pxrInternal_v0_24__pxrReserved__8GfLine2d8GetPointEd(ptr noundef nonnull align 8 dereferenceable(32) %0, double noundef %1) #0 comdat align 2 {
  %3 = alloca %"class.pxrInternal_v0_24__pxrReserved__::GfVec2d", align 8
  %4 = alloca ptr, align 8
  %5 = alloca double, align 8
  %6 = alloca %"class.pxrInternal_v0_24__pxrReserved__::GfVec2d", align 8
  store ptr %0, ptr %4, align 8
  store double %1, ptr %5, align 8
  %7 = load ptr, ptr %4, align 8
  %8 = getelementptr inbounds nuw %"class.pxrInternal_v0_24__pxrReserved__::GfLine2d", ptr %7, i32 0, i32 0
  %9 = getelementptr inbounds nuw %"class.pxrInternal_v0_24__pxrReserved__::GfLine2d", ptr %7, i32 0, i32 1
  %10 = load double, ptr %5, align 8
  %11 = call { double, double } @_ZNK32pxrInternal_v0_24__pxrReserved__7GfVec2dmlEd(ptr noundef nonnull align 8 dereferenceable(16) %9, double noundef %10)
  %12 = getelementptr inbounds nuw %"class.pxrInternal_v0_24__pxrReserved__::GfVec2d", ptr %6, i32 0, i32 0
  %13 = getelementptr inbounds nuw { double, double }, ptr %12, i32 0, i32 0
  %14 = extractvalue { double, double } %11, 0
  store double %14, ptr %13, align 8
  %15 = getelementptr inbounds nuw { double, double }, ptr %12, i32 0, i32 1
  %16 = extractvalue { double, double } %11, 1
  store double %16, ptr %15, align 8
  %17 = call { double, double } @_ZN32pxrInternal_v0_24__pxrReserved__plERKNS_7GfVec2dES2_(ptr noundef nonnull align 8 dereferenceable(16) %8, ptr noundef nonnull align 8 dereferenceable(16) %6)
  %18 = getelementptr inbounds nuw %"class.pxrInternal_v0_24__pxrReserved__::GfVec2d", ptr %3, i32 0, i32 0
  %19 = getelementptr inbounds nuw { double, double }, ptr %18, i32 0, i32 0
  %20 = extractvalue { double, double } %17, 0
  store double %20, ptr %19, align 8
  %21 = getelementptr inbounds nuw { double, double }, ptr %18, i32 0, i32 1
  %22 = extractvalue { double, double } %17, 1
  store double %22, ptr %21, align 8
  %23 = getelementptr inbounds nuw %"class.pxrInternal_v0_24__pxrReserved__::GfVec2d", ptr %3, i32 0, i32 0
  %24 = load { double, double }, ptr %23, align 8
  ret { double, double } %24
}

; Function Attrs: mustprogress uwtable
define linkonce_odr { double, double } @_ZNK32pxrInternal_v0_24__pxrReserved__11GfLineSeg2d8GetPointEd(ptr noundef nonnull align 8 dereferenceable(40) %0, double noundef %1) #0 comdat align 2 {
  %3 = alloca %"class.pxrInternal_v0_24__pxrReserved__::GfVec2d", align 8
  %4 = alloca ptr, align 8
  %5 = alloca double, align 8
  store ptr %0, ptr %4, align 8
  store double %1, ptr %5, align 8
  %6 = load ptr, ptr %4, align 8
  %7 = getelementptr inbounds nuw %"class.pxrInternal_v0_24__pxrReserved__::GfLineSeg2d", ptr %6, i32 0, i32 0
  %8 = load double, ptr %5, align 8
  %9 = getelementptr inbounds nuw %"class.pxrInternal_v0_24__pxrReserved__::GfLineSeg2d", ptr %6, i32 0, i32 1
  %10 = load double, ptr %9, align 8
  %11 = fmul double %8, %10
  %12 = call { double, double } @_ZNK32pxrInternal_v0_24__pxrReserved__8GfLine2d8GetPointEd(ptr noundef nonnull align 8 dereferenceable(32) %7, double noundef %11)
  %13 = getelementptr inbounds nuw %"class.pxrInternal_v0_24__pxrReserved__::GfVec2d", ptr %3, i32 0, i32 0
  %14 = getelementptr inbounds nuw { double, double }, ptr %13, i32 0, i32 0
  %15 = extractvalue { double, double } %12, 0
  store double %15, ptr %14, align 8
  %16 = getelementptr inbounds nuw { double, double }, ptr %13, i32 0, i32 1
  %17 = extractvalue { double, double } %12, 1
  store double %17, ptr %16, align 8
  %18 = getelementptr inbounds nuw %"class.pxrInternal_v0_24__pxrReserved__::GfVec2d", ptr %3, i32 0, i32 0
  %19 = load { double, double }, ptr %18, align 8
  ret { double, double } %19
}

; Function Attrs: mustprogress nounwind uwtable
define linkonce_odr noundef double @_ZN32pxrInternal_v0_24__pxrReserved__7GfClampEddd(double noundef %0, double noundef %1, double noundef %2) #2 comdat {
  %4 = alloca double, align 8
  %5 = alloca double, align 8
  %6 = alloca double, align 8
  %7 = alloca double, align 8
  store double %0, ptr %5, align 8
  store double %1, ptr %6, align 8
  store double %2, ptr %7, align 8
  %8 = load double, ptr %5, align 8
  %9 = load double, ptr %6, align 8
  %10 = fcmp olt double %8, %9
  br i1 %10, label %11, label %13

11:                                               ; preds = %3
  %12 = load double, ptr %6, align 8
  store double %12, ptr %4, align 8
  br label %21

13:                                               ; preds = %3
  %14 = load double, ptr %5, align 8
  %15 = load double, ptr %7, align 8
  %16 = fcmp ogt double %14, %15
  br i1 %16, label %17, label %19

17:                                               ; preds = %13
  %18 = load double, ptr %7, align 8
  store double %18, ptr %4, align 8
  br label %21

19:                                               ; preds = %13
  %20 = load double, ptr %5, align 8
  store double %20, ptr %4, align 8
  br label %21

21:                                               ; preds = %19, %17, %11
  %22 = load double, ptr %4, align 8
  ret double %22
}

; Function Attrs: mustprogress uwtable
define noundef zeroext i1 @_ZN32pxrInternal_v0_24__pxrReserved__19GfFindClosestPointsERKNS_11GfLineSeg2dES2_PNS_7GfVec2dES4_PdS5_(ptr noundef nonnull align 8 dereferenceable(40) %0, ptr noundef nonnull align 8 dereferenceable(40) %1, ptr noundef %2, ptr noundef %3, ptr noundef %4, ptr noundef %5) #0 {
  %7 = alloca i1, align 1
  %8 = alloca ptr, align 8
  %9 = alloca ptr, align 8
  %10 = alloca ptr, align 8
  %11 = alloca ptr, align 8
  %12 = alloca ptr, align 8
  %13 = alloca ptr, align 8
  %14 = alloca %"class.pxrInternal_v0_24__pxrReserved__::GfVec2d", align 8
  %15 = alloca %"class.pxrInternal_v0_24__pxrReserved__::GfVec2d", align 8
  %16 = alloca double, align 8
  %17 = alloca double, align 8
  %18 = alloca %"class.pxrInternal_v0_24__pxrReserved__::GfVec2d", align 8
  %19 = alloca %"class.pxrInternal_v0_24__pxrReserved__::GfVec2d", align 8
  store ptr %0, ptr %8, align 8
  store ptr %1, ptr %9, align 8
  store ptr %2, ptr %10, align 8
  store ptr %3, ptr %11, align 8
  store ptr %4, ptr %12, align 8
  store ptr %5, ptr %13, align 8
  %20 = load ptr, ptr %8, align 8
  %21 = getelementptr inbounds nuw %"class.pxrInternal_v0_24__pxrReserved__::GfLineSeg2d", ptr %20, i32 0, i32 0
  %22 = load ptr, ptr %9, align 8
  %23 = getelementptr inbounds nuw %"class.pxrInternal_v0_24__pxrReserved__::GfLineSeg2d", ptr %22, i32 0, i32 0
  %24 = call noundef zeroext i1 @_ZN32pxrInternal_v0_24__pxrReserved__19GfFindClosestPointsERKNS_8GfLine2dES2_PNS_7GfVec2dES4_PdS5_(ptr noundef nonnull align 8 dereferenceable(32) %21, ptr noundef nonnull align 8 dereferenceable(32) %23, ptr noundef %14, ptr noundef %15, ptr noundef %16, ptr noundef %17)
  br i1 %24, label %26, label %25

25:                                               ; preds = %6
  store i1 false, ptr %7, align 1
  br label %77

26:                                               ; preds = %6
  %27 = load double, ptr %16, align 8
  %28 = load ptr, ptr %8, align 8
  %29 = getelementptr inbounds nuw %"class.pxrInternal_v0_24__pxrReserved__::GfLineSeg2d", ptr %28, i32 0, i32 1
  %30 = load double, ptr %29, align 8
  %31 = fdiv double %27, %30
  %32 = call noundef double @_ZN32pxrInternal_v0_24__pxrReserved__7GfClampEddd(double noundef %31, double noundef 0.000000e+00, double noundef 1.000000e+00)
  store double %32, ptr %16, align 8
  %33 = load double, ptr %17, align 8
  %34 = load ptr, ptr %9, align 8
  %35 = getelementptr inbounds nuw %"class.pxrInternal_v0_24__pxrReserved__::GfLineSeg2d", ptr %34, i32 0, i32 1
  %36 = load double, ptr %35, align 8
  %37 = fdiv double %33, %36
  %38 = call noundef double @_ZN32pxrInternal_v0_24__pxrReserved__7GfClampEddd(double noundef %37, double noundef 0.000000e+00, double noundef 1.000000e+00)
  store double %38, ptr %17, align 8
  %39 = load ptr, ptr %10, align 8
  %40 = icmp ne ptr %39, null
  br i1 %40, label %41, label %51

41:                                               ; preds = %26
  %42 = load ptr, ptr %8, align 8
  %43 = load double, ptr %16, align 8
  %44 = call { double, double } @_ZNK32pxrInternal_v0_24__pxrReserved__11GfLineSeg2d8GetPointEd(ptr noundef nonnull align 8 dereferenceable(40) %42, double noundef %43)
  %45 = getelementptr inbounds nuw %"class.pxrInternal_v0_24__pxrReserved__::GfVec2d", ptr %18, i32 0, i32 0
  %46 = getelementptr inbounds nuw { double, double }, ptr %45, i32 0, i32 0
  %47 = extractvalue { double, double } %44, 0
  store double %47, ptr %46, align 8
  %48 = getelementptr inbounds nuw { double, double }, ptr %45, i32 0, i32 1
  %49 = extractvalue { double, double } %44, 1
  store double %49, ptr %48, align 8
  %50 = load ptr, ptr %10, align 8
  call void @llvm.memcpy.p0.p0.i64(ptr align 8 %50, ptr align 8 %18, i64 16, i1 false)
  br label %51

51:                                               ; preds = %41, %26
  %52 = load ptr, ptr %11, align 8
  %53 = icmp ne ptr %52, null
  br i1 %53, label %54, label %64

54:                                               ; preds = %51
  %55 = load ptr, ptr %9, align 8
  %56 = load double, ptr %17, align 8
  %57 = call { double, double } @_ZNK32pxrInternal_v0_24__pxrReserved__11GfLineSeg2d8GetPointEd(ptr noundef nonnull align 8 dereferenceable(40) %55, double noundef %56)
  %58 = getelementptr inbounds nuw %"class.pxrInternal_v0_24__pxrReserved__::GfVec2d", ptr %19, i32 0, i32 0
  %59 = getelementptr inbounds nuw { double, double }, ptr %58, i32 0, i32 0
  %60 = extractvalue { double, double } %57, 0
  store double %60, ptr %59, align 8
  %61 = getelementptr inbounds nuw { double, double }, ptr %58, i32 0, i32 1
  %62 = extractvalue { double, double } %57, 1
  store double %62, ptr %61, align 8
  %63 = load ptr, ptr %11, align 8
  call void @llvm.memcpy.p0.p0.i64(ptr align 8 %63, ptr align 8 %19, i64 16, i1 false)
  br label %64

64:                                               ; preds = %54, %51
  %65 = load ptr, ptr %12, align 8
  %66 = icmp ne ptr %65, null
  br i1 %66, label %67, label %70

67:                                               ; preds = %64
  %68 = load double, ptr %16, align 8
  %69 = load ptr, ptr %12, align 8
  store double %68, ptr %69, align 8
  br label %70

70:                                               ; preds = %67, %64
  %71 = load ptr, ptr %13, align 8
  %72 = icmp ne ptr %71, null
  br i1 %72, label %73, label %76

73:                                               ; preds = %70
  %74 = load double, ptr %17, align 8
  %75 = load ptr, ptr %13, align 8
  store double %74, ptr %75, align 8
  br label %76

76:                                               ; preds = %73, %70
  store i1 true, ptr %7, align 1
  br label %77

77:                                               ; preds = %76, %25
  %78 = load i1, ptr %7, align 1
  ret i1 %78
}