; Function Attrs: mustprogress uwtable
define noundef zeroext i1 @_ZN32pxrInternal_v0_24__pxrReserved__19GfFindClosestPointsERKNS_11GfLineSeg2dES2_PNS_7GfVec2dES4_PdS5_(ptr noundef nonnull align 8 dereferenceable(40) %0, ptr noundef nonnull align 8 dereferenceable(40) %1, ptr noundef writeonly %2, ptr noundef writeonly %3, ptr noundef writeonly %4, ptr noundef writeonly %5) local_unnamed_addr #0 {
  %7 = alloca %"class.pxrInternal_v0_24__pxrReserved__::GfVec2d", align 8
  %8 = alloca %"class.pxrInternal_v0_24__pxrReserved__::GfVec2d", align 8
  %9 = alloca double, align 8
  %10 = alloca double, align 8
  %11 = call noundef zeroext i1 @_ZN32pxrInternal_v0_24__pxrReserved__19GfFindClosestPointsERKNS_8GfLine2dES2_PNS_7GfVec2dES4_PdS5_(ptr noundef nonnull align 8 dereferenceable(32) %0, ptr noundef nonnull align 8 dereferenceable(32) %1, ptr noundef nonnull %7, ptr noundef nonnull %8, ptr noundef nonnull %9, ptr noundef nonnull %10)
  br i1 %11, label %12, label %45

12:                                               ; preds = %6
  %13 = load double, ptr %9, align 8
  %14 = getelementptr inbounds nuw i8, ptr %0, i64 32
  %15 = load double, ptr %14, align 8
  %16 = fdiv double %13, %15
  %17 = fcmp olt double %16, 0.000000e+00
  %18 = fcmp ogt double %16, 1.000000e+00
  %..i = select i1 %18, double 1.000000e+00, double %16
  %.0.i = select i1 %17, double 0.000000e+00, double %..i
  %19 = load double, ptr %10, align 8
  %20 = getelementptr inbounds nuw i8, ptr %1, i64 32
  %21 = load double, ptr %20, align 8
  %22 = fdiv double %19, %21
  %23 = fcmp olt double %22, 0.000000e+00
  %24 = fcmp ogt double %22, 1.000000e+00
  %..i24 = select i1 %24, double 1.000000e+00, double %22
  %.0.i25 = select i1 %23, double 0.000000e+00, double %..i24
  %.not = icmp eq ptr %2, null
  br i1 %.not, label %32, label %25

25:                                               ; preds = %12
  %26 = fmul double %15, %.0.i
  %27 = getelementptr inbounds nuw i8, ptr %0, i64 16
  %.sroa.0.0.copyload2.i.i.i = load double, ptr %27, align 8
  %.sroa.4.0..sroa_idx.i.i.i = getelementptr inbounds nuw i8, ptr %0, i64 24
  %.sroa.4.0.copyload.i.i.i = load double, ptr %.sroa.4.0..sroa_idx.i.i.i, align 8
  %28 = fmul double %26, %.sroa.0.0.copyload2.i.i.i
  %29 = fmul double %26, %.sroa.4.0.copyload.i.i.i
  %.sroa.0.0.copyload2.i2.i.i = load double, ptr %0, align 8
  %.sroa.4.0..sroa_idx.i3.i.i = getelementptr inbounds nuw i8, ptr %0, i64 8
  %.sroa.4.0.copyload.i4.i.i = load double, ptr %.sroa.4.0..sroa_idx.i3.i.i, align 8
  %30 = fadd double %28, %.sroa.0.0.copyload2.i2.i.i
  %31 = fadd double %29, %.sroa.4.0.copyload.i4.i.i
  store double %30, ptr %2, align 8
  %.sroa.22.0..sroa_idx = getelementptr inbounds nuw i8, ptr %2, i64 8
  store double %31, ptr %.sroa.22.0..sroa_idx, align 8
  br label %32

32:                                               ; preds = %25, %12
  %.not21 = icmp eq ptr %3, null
  br i1 %.not21, label %41, label %33

33:                                               ; preds = %32
  %34 = load double, ptr %20, align 8
  %35 = fmul double %.0.i25, %34
  %36 = getelementptr inbounds nuw i8, ptr %1, i64 16
  %.sroa.0.0.copyload2.i.i.i26 = load double, ptr %36, align 8
  %.sroa.4.0..sroa_idx.i.i.i27 = getelementptr inbounds nuw i8, ptr %1, i64 24
  %.sroa.4.0.copyload.i.i.i28 = load double, ptr %.sroa.4.0..sroa_idx.i.i.i27, align 8
  %37 = fmul double %35, %.sroa.0.0.copyload2.i.i.i26
  %38 = fmul double %35, %.sroa.4.0.copyload.i.i.i28
  %.sroa.0.0.copyload2.i2.i.i29 = load double, ptr %1, align 8
  %.sroa.4.0..sroa_idx.i3.i.i30 = getelementptr inbounds nuw i8, ptr %1, i64 8
  %.sroa.4.0.copyload.i4.i.i31 = load double, ptr %.sroa.4.0..sroa_idx.i3.i.i30, align 8
  %39 = fadd double %37, %.sroa.0.0.copyload2.i2.i.i29
  %40 = fadd double %38, %.sroa.4.0.copyload.i4.i.i31
  store double %39, ptr %3, align 8
  %.sroa.2.0..sroa_idx = getelementptr inbounds nuw i8, ptr %3, i64 8
  store double %40, ptr %.sroa.2.0..sroa_idx, align 8
  br label %41

41:                                               ; preds = %33, %32
  %.not22 = icmp eq ptr %4, null
  br i1 %.not22, label %43, label %42

42:                                               ; preds = %41
  store double %.0.i, ptr %4, align 8
  br label %43

43:                                               ; preds = %42, %41
  %.not23 = icmp eq ptr %5, null
  br i1 %.not23, label %45, label %44

44:                                               ; preds = %43
  store double %.0.i25, ptr %5, align 8
  br label %45

45:                                               ; preds = %43, %44, %6
  ret i1 %11
}